target datalayout = "e-m:e-p270:32:32-p271:32:32-p272:64:64-i64:64-i128:128-f80:128-n8:16:32:64-S128"
target triple = "x86_64-pc-linux-gnu"

; Function Attrs: inlinehint nounwind willreturn memory(none) uwtable
define internal i32 @mid_pred(i32 noundef %0, i32 noundef %1, i32 noundef %2) #3 {
  %4 = alloca i32, align 4
  %5 = alloca i32, align 4
  %6 = alloca i32, align 4
  store i32 %0, ptr %4, align 4, !tbaa !9
  store i32 %1, ptr %5, align 4, !tbaa !9
  store i32 %2, ptr %6, align 4, !tbaa !9
  %7 = load i32, ptr %4, align 4, !tbaa !9
  %8 = load i32, ptr %5, align 4, !tbaa !9
  %9 = icmp sgt i32 %7, %8
  br i1 %9, label %10, label %24

10:                                               ; preds = %3
  %11 = load i32, ptr %6, align 4, !tbaa !9
  %12 = load i32, ptr %5, align 4, !tbaa !9
  %13 = icmp sgt i32 %11, %12
  br i1 %13, label %14, label %23

14:                                               ; preds = %10
  %15 = load i32, ptr %6, align 4, !tbaa !9
  %16 = load i32, ptr %4, align 4, !tbaa !9
  %17 = icmp sgt i32 %15, %16
  br i1 %17, label %18, label %20

18:                                               ; preds = %14
  %19 = load i32, ptr %4, align 4, !tbaa !9
  store i32 %19, ptr %5, align 4, !tbaa !9
  br label %22

20:                                               ; preds = %14
  %21 = load i32, ptr %6, align 4, !tbaa !9
  store i32 %21, ptr %5, align 4, !tbaa !9
  br label %22

22:                                               ; preds = %20, %18
  br label %23

23:                                               ; preds = %22, %10
  br label %38

24:                                               ; preds = %3
  %25 = load i32, ptr %5, align 4, !tbaa !9
  %26 = load i32, ptr %6, align 4, !tbaa !9
  %27 = icmp sgt i32 %25, %26
  br i1 %27, label %28, label %37

28:                                               ; preds = %24
  %29 = load i32, ptr %6, align 4, !tbaa !9
  %30 = load i32, ptr %4, align 4, !tbaa !9
  %31 = icmp sgt i32 %29, %30
  br i1 %31, label %32, label %34

32:                                               ; preds = %28
  %33 = load i32, ptr %6, align 4, !tbaa !9
  store i32 %33, ptr %5, align 4, !tbaa !9
  br label %36

34:                                               ; preds = %28
  %35 = load i32, ptr %4, align 4, !tbaa !9
  store i32 %35, ptr %5, align 4, !tbaa !9
  br label %36

36:                                               ; preds = %34, %32
  br label %37

37:                                               ; preds = %36, %24
  br label %38

38:                                               ; preds = %37, %23
  %39 = load i32, ptr %5, align 4, !tbaa !9
  ret i32 %39
}

; Function Attrs: nounwind uwtable
define internal void @add_hfyu_median_pred_int16_c(ptr noundef %0, ptr noundef %1, ptr noundef %2, i32 noundef %3, i32 noundef %4, ptr noundef %5, ptr noundef %6) #1 {
  %8 = alloca ptr, align 8
  %9 = alloca ptr, align 8
  %10 = alloca ptr, align 8
  %11 = alloca i32, align 4
  %12 = alloca i32, align 4
  %13 = alloca ptr, align 8
  %14 = alloca ptr, align 8
  %15 = alloca i32, align 4
  %16 = alloca i16, align 2
  %17 = alloca i16, align 2
  store ptr %0, ptr %8, align 8, !tbaa !15
  store ptr %1, ptr %9, align 8, !tbaa !15
  store ptr %2, ptr %10, align 8, !tbaa !15
  store i32 %3, ptr %11, align 4, !tbaa !9
  store i32 %4, ptr %12, align 4, !tbaa !9
  store ptr %5, ptr %13, align 8, !tbaa !24
  store ptr %6, ptr %14, align 8, !tbaa !24
  call void @llvm.lifetime.start.p0(i64 4, ptr %15) #4
  call void @llvm.lifetime.start.p0(i64 2, ptr %16) #4
  call void @llvm.lifetime.start.p0(i64 2, ptr %17) #4
  %18 = load ptr, ptr %13, align 8, !tbaa !24
  %19 = load i32, ptr %18, align 4, !tbaa !9
  %20 = trunc i32 %19 to i16
  store i16 %20, ptr %16, align 2, !tbaa !21
  %21 = load ptr, ptr %14, align 8, !tbaa !24
  %22 = load i32, ptr %21, align 4, !tbaa !9
  %23 = trunc i32 %22 to i16
  store i16 %23, ptr %17, align 2, !tbaa !21
  store i32 0, ptr %15, align 4, !tbaa !9
  br label %24

24:                                               ; preds = %72, %7
  %25 = load i32, ptr %15, align 4, !tbaa !9
  %26 = load i32, ptr %12, align 4, !tbaa !9
  %27 = icmp slt i32 %25, %26
  br i1 %27, label %28, label %75

28:                                               ; preds = %24
  %29 = load i16, ptr %16, align 2, !tbaa !21
  %30 = zext i16 %29 to i32
  %31 = load ptr, ptr %9, align 8, !tbaa !15
  %32 = load i32, ptr %15, align 4, !tbaa !9
  %33 = sext i32 %32 to i64
  %34 = getelementptr inbounds i16, ptr %31, i64 %33
  %35 = load i16, ptr %34, align 2, !tbaa !21
  %36 = zext i16 %35 to i32
  %37 = load i16, ptr %16, align 2, !tbaa !21
  %38 = zext i16 %37 to i32
  %39 = load ptr, ptr %9, align 8, !tbaa !15
  %40 = load i32, ptr %15, align 4, !tbaa !9
  %41 = sext i32 %40 to i64
  %42 = getelementptr inbounds i16, ptr %39, i64 %41
  %43 = load i16, ptr %42, align 2, !tbaa !21
  %44 = zext i16 %43 to i32
  %45 = add nsw i32 %38, %44
  %46 = load i16, ptr %17, align 2, !tbaa !21
  %47 = zext i16 %46 to i32
  %48 = sub nsw i32 %45, %47
  %49 = load i32, ptr %11, align 4, !tbaa !9
  %50 = and i32 %48, %49
  %51 = call i32 @mid_pred(i32 noundef %30, i32 noundef %36, i32 noundef %50) #5
  %52 = load ptr, ptr %10, align 8, !tbaa !15
  %53 = load i32, ptr %15, align 4, !tbaa !9
  %54 = sext i32 %53 to i64
  %55 = getelementptr inbounds i16, ptr %52, i64 %54
  %56 = load i16, ptr %55, align 2, !tbaa !21
  %57 = zext i16 %56 to i32
  %58 = add nsw i32 %51, %57
  %59 = load i32, ptr %11, align 4, !tbaa !9
  %60 = and i32 %58, %59
  %61 = trunc i32 %60 to i16
  store i16 %61, ptr %16, align 2, !tbaa !21
  %62 = load ptr, ptr %9, align 8, !tbaa !15
  %63 = load i32, ptr %15, align 4, !tbaa !9
  %64 = sext i32 %63 to i64
  %65 = getelementptr inbounds i16, ptr %62, i64 %64
  %66 = load i16, ptr %65, align 2, !tbaa !21
  store i16 %66, ptr %17, align 2, !tbaa !21
  %67 = load i16, ptr %16, align 2, !tbaa !21
  %68 = load ptr, ptr %8, align 8, !tbaa !15
  %69 = load i32, ptr %15, align 4, !tbaa !9
  %70 = sext i32 %69 to i64
  %71 = getelementptr inbounds i16, ptr %68, i64 %70
  store i16 %67, ptr %71, align 2, !tbaa !21
  br label %72

72:                                               ; preds = %28
  %73 = load i32, ptr %15, align 4, !tbaa !9
  %74 = add nsw i32 %73, 1
  store i32 %74, ptr %15, align 4, !tbaa !9
  br label %24, !llvm.loop !26

75:                                               ; preds = %24
  %76 = load i16, ptr %16, align 2, !tbaa !21
  %77 = zext i16 %76 to i32
  %78 = load ptr, ptr %13, align 8, !tbaa !24
  store i32 %77, ptr %78, align 4, !tbaa !9
  %79 = load i16, ptr %17, align 2, !tbaa !21
  %80 = zext i16 %79 to i32
  %81 = load ptr, ptr %14, align 8, !tbaa !24
  store i32 %80, ptr %81, align 4, !tbaa !9
  call void @llvm.lifetime.end.p0(i64 2, ptr %17) #4
  call void @llvm.lifetime.end.p0(i64 2, ptr %16) #4
  call void @llvm.lifetime.end.p0(i64 4, ptr %15) #4
  ret void
}