; Function Attrs: nofree norecurse nosync nounwind memory(argmem: readwrite) uwtable
define internal void @add_hfyu_median_pred_int16_c(ptr noundef writeonly captures(none) %0, ptr noundef readonly captures(none) %1, ptr noundef readonly captures(none) %2, i32 noundef %3, i32 noundef %4, ptr noundef captures(none) %5, ptr noundef captures(none) %6) #1 {
  %8 = load i32, ptr %5, align 4, !tbaa !18
  %9 = load i32, ptr %6, align 4, !tbaa !18
  %10 = icmp sgt i32 %4, 0
  br i1 %10, label %.lr.ph.preheader, label %.._crit_edge_crit_edge

.._crit_edge_crit_edge:                           ; preds = %7
  %.pre = and i32 %9, 65535
  br label %._crit_edge

.lr.ph.preheader:                                 ; preds = %7
  %11 = trunc i32 %9 to i16
  %12 = trunc i32 %8 to i16
  %wide.trip.count = zext nneg i32 %4 to i64
  br label %.lr.ph

.lr.ph:                                           ; preds = %.lr.ph.preheader, %mid_pred.exit
  %indvars.iv = phi i64 [ 0, %.lr.ph.preheader ], [ %indvars.iv.next, %mid_pred.exit ]
  %.028 = phi i16 [ %11, %.lr.ph.preheader ], [ %15, %mid_pred.exit ]
  %.02427 = phi i16 [ %12, %.lr.ph.preheader ], [ %33, %mid_pred.exit ]
  %13 = zext i16 %.02427 to i32
  %14 = getelementptr inbounds nuw i16, ptr %1, i64 %indvars.iv
  %15 = load i16, ptr %14, align 2, !tbaa !15
  %16 = zext i16 %15 to i32
  %17 = zext i16 %.028 to i32
  %18 = sub nsw i32 %13, %17
  %19 = add nsw i32 %18, %16
  %20 = and i32 %19, %3
  %21 = icmp ugt i16 %.02427, %15
  br i1 %21, label %22, label %25

22:                                               ; preds = %.lr.ph
  %23 = icmp sgt i32 %20, %16
  br i1 %23, label %24, label %mid_pred.exit

24:                                               ; preds = %22
  %..i = tail call i32 @llvm.umin.i32(i32 %20, i32 range(i32 0, 65536) %13)
  br label %mid_pred.exit

25:                                               ; preds = %.lr.ph
  %26 = icmp slt i32 %20, %16
  br i1 %26, label %27, label %mid_pred.exit

27:                                               ; preds = %25
  %.20.i = tail call i32 @llvm.smax.i32(i32 %20, i32 range(i32 0, 65536) %13)
  br label %mid_pred.exit

mid_pred.exit:                                    ; preds = %22, %24, %25, %27
  %.0.i = phi i32 [ %16, %22 ], [ %16, %25 ], [ %..i, %24 ], [ %.20.i, %27 ]
  %28 = getelementptr inbounds nuw i16, ptr %2, i64 %indvars.iv
  %29 = load i16, ptr %28, align 2, !tbaa !15
  %30 = zext i16 %29 to i32
  %31 = add nuw nsw i32 %.0.i, %30
  %32 = and i32 %31, %3
  %33 = trunc i32 %32 to i16
  %34 = getelementptr inbounds nuw i16, ptr %0, i64 %indvars.iv
  store i16 %33, ptr %34, align 2, !tbaa !15
  %indvars.iv.next = add nuw nsw i64 %indvars.iv, 1
  %exitcond.not = icmp eq i64 %indvars.iv.next, %wide.trip.count
  br i1 %exitcond.not, label %._crit_edge, label %.lr.ph, !llvm.loop !20

._crit_edge:                                      ; preds = %mid_pred.exit, %.._crit_edge_crit_edge
  %.pre-phi = phi i32 [ %.pre, %.._crit_edge_crit_edge ], [ %16, %mid_pred.exit ]
  %.024.lcssa = phi i32 [ %8, %.._crit_edge_crit_edge ], [ %32, %mid_pred.exit ]
  %35 = and i32 %.024.lcssa, 65535
  store i32 %35, ptr %5, align 4, !tbaa !18
  store i32 %.pre-phi, ptr %6, align 4, !tbaa !18
  ret void
}